(dp1
S'output'
p2
S"<type 'exceptions.TypeError'> long() argument must be a string or a number, not 'Table'"
p3
sS'layer'
p4
S'C:\\Users\\Desmond\\Documents\\web2py\\applications\\EventCentral\\controllers/default.py'
p5
sS'code'
p6
S'# -*- coding: utf-8 -*-\n\n@auth.requires_login()\ndef index():\n  response.flash = T("Welcome to web2py!")\n  return dict(user_id=auth.user.id)\n\n@auth.requires_login()\ndef rsvp():\n  rows = db((db.rsvp.student_id==auth.user.id) & (db.rsvp.event_id == db.events.id) & (db.student_org == db.events.student_org_id)).select()\n  print rows\n  return dict(user_id=auth.user.id, rows=rows)\n\n\n\n\n\n\n\n\ndef user():\n  """\n  exposes:\n  http://..../[app]/default/user/login\n  http://..../[app]/default/user/logout\n  http://..../[app]/default/user/register\n  http://..../[app]/default/user/profile\n  http://..../[app]/default/user/retrieve_password\n  http://..../[app]/default/user/change_password\n  http://..../[app]/default/user/manage_users (requires membership in\n  use @auth.requires_login()\n      @auth.requires_membership(\'group name\')\n      @auth.requires_permission(\'read\',\'table name\',record_id)\n  to decorate functions that need access control\n  """\n  return dict(form=auth())\n\n@cache.action()\ndef download():\n  """\n  allows downloading of uploaded files\n  http://..../[app]/default/download/[filename]\n  """\n  return response.download(request, db)\n\n\ndef call():\n  """\n  exposes services. for example:\n  http://..../[app]/default/call/jsonrpc\n  decorate with @services.jsonrpc the functions to expose\n  supports xml, json, xmlrpc, jsonrpc, amfrpc, rss, csv\n  """\n  return service()\n\n\n@auth.requires_signature()\ndef data():\n  """\n  http://..../[app]/default/data/tables\n  http://..../[app]/default/data/create/[table]\n  http://..../[app]/default/data/read/[table]/[id]\n  http://..../[app]/default/data/update/[table]/[id]\n  http://..../[app]/default/data/delete/[table]/[id]\n  http://..../[app]/default/data/select/[table]\n  http://..../[app]/default/data/search/[table]\n  but URLs must be signed, i.e. linked with\n    A(\'table\',_href=URL(\'data/tables\',user_signature=True))\n  or with the signed load operator\n    LOAD(\'default\',\'data.load\',args=\'tables\',ajax=True,user_signature=True)\n  """\n  return dict(form=crud())\n\nresponse._vars=response._caller(rsvp)\n'
p7
sS'snapshot'
p8
(dp9
sS'traceback'
p10
S'Traceback (most recent call last):\n  File "gluon/restricted.py", line 224, in restricted\n  File "C:\\Users\\Desmond\\Documents\\web2py\\applications\\EventCentral\\controllers/default.py", line 74, in <module>\n  File "gluon/globals.py", line 392, in <lambda>\n  File "gluon/tools.py", line 3439, in f\n  File "C:\\Users\\Desmond\\Documents\\web2py\\applications\\EventCentral\\controllers/default.py", line 10, in rsvp\n    rows = db((db.rsvp.student_id==auth.user.id) & (db.rsvp.event_id == db.events.id) & (db.student_org == db.events.student_org_id)).select()\n  File "gluon/dal.py", line 10749, in select\n  File "gluon/dal.py", line 2472, in select\n  File "gluon/dal.py", line 1868, in select\n  File "gluon/dal.py", line 1767, in _select\n  File "gluon/dal.py", line 1544, in expand\n  File "gluon/dal.py", line 1382, in AND\n  File "gluon/dal.py", line 1544, in expand\n  File "gluon/dal.py", line 1440, in EQ\n  File "gluon/dal.py", line 1555, in expand\n  File "gluon/dal.py", line 2012, in represent\nTypeError: long() argument must be a string or a number, not \'Table\'\n'
p11
s.