(dp1
S'output'
p2
S"<type 'exceptions.NameError'> name 'integer' is not defined"
p3
sS'layer'
p4
S'C:\\Users\\Desmond\\Documents\\web2py\\applications\\EventCentral\\models\\d_comments.py'
p5
sS'code'
p6
S"# -*- coding: utf-8 -*-\n\n#comments are comments on an event\ndb.define_table('comment',                            #will probably be modified later to include type of post and whatever else\n                Field('event_id', 'reference event'),            \n                Field('comment_type', integer), #0=?(normal comment), 1=?(question), 2=?(awnser)\n                Field('text', text),\n                Field('creation_time', datetime),\n                Field('poster_id', 'reference student'), # use controller logic to check if the student who posted is a admin of the student org\n                )\n\t\t\t\t\t\t\t\t\ndb.comment.event_id.writable = db.comment.event_id.readable = False\ndb.comment.poster_id.writable = db.comment.poster_id.readable = False\n"
p7
sS'snapshot'
p8
(dp9
S'exception'
p10
(dp11
S'__hash__'
p12
S"<method-wrapper '__hash__' of exceptions.NameError object>"
p13
sS'__setattr__'
p14
S"<method-wrapper '__setattr__' of exceptions.NameError object>"
p15
sS'__reduce_ex__'
p16
S'<built-in method __reduce_ex__ of exceptions.NameError object>'
p17
sS'__getslice__'
p18
S"<method-wrapper '__getslice__' of exceptions.NameError object>"
p19
sS'__getitem__'
p20
S"<method-wrapper '__getitem__' of exceptions.NameError object>"
p21
sS'__setstate__'
p22
S'<built-in method __setstate__ of exceptions.NameError object>'
p23
sS'__reduce__'
p24
S'<built-in method __reduce__ of exceptions.NameError object>'
p25
sS'__str__'
p26
S"<method-wrapper '__str__' of exceptions.NameError object>"
p27
sS'__format__'
p28
S'<built-in method __format__ of exceptions.NameError object>'
p29
sS'__getattribute__'
p30
S"<method-wrapper '__getattribute__' of exceptions.NameError object>"
p31
sS'__class__'
p32
S"<type 'exceptions.NameError'>"
p33
sS'__unicode__'
p34
S'<built-in method __unicode__ of exceptions.NameError object>'
p35
sS'__delattr__'
p36
S"<method-wrapper '__delattr__' of exceptions.NameError object>"
p37
sS'__subclasshook__'
p38
S'<built-in method __subclasshook__ of type object>'
p39
sS'__repr__'
p40
S"<method-wrapper '__repr__' of exceptions.NameError object>"
p41
sS'args'
p42
S'("name \'integer\' is not defined",)'
p43
sS'__dict__'
p44
S'{}'
p45
sS'__sizeof__'
p46
S'<built-in method __sizeof__ of exceptions.NameError object>'
p47
sS'__doc__'
p48
S"'Name not found globally.'"
p49
sS'__init__'
p50
S"<method-wrapper '__init__' of exceptions.NameError object>"
p51
sS'__new__'
p52
S'<built-in method __new__ of type object>'
p53
ssS'evalue'
p54
S"name 'integer' is not defined"
p55
sS'request'
p56
cgluon.html
XML_unpickle
p57
(S's\x17}\x00\x00<div><table><tr><td style="font-weight:bold;vertical-align:top;">ajax</td><td style="vertical-align:top;">:</td><td><div>False</div></td></tr><tr><td style="font-weight:bold;vertical-align:top;">application</td><td style="vertical-align:top;">:</td><td><div>EventCentral</div></td></tr><tr><td style="font-weight:bold;vertical-align:top;">args</td><td style="vertical-align:top;">:</td><td><div><table></table></div></td></tr><tr><td style="font-weight:bold;vertical-align:top;">cid</td><td style="vertical-align:top;">:</td><td><div>None</div></td></tr><tr><td style="font-weight:bold;vertical-align:top;">client</td><td style="vertical-align:top;">:</td><td><div>127.0.0.1</div></td></tr><tr><td style="font-weight:bold;vertical-align:top;">controller</td><td style="vertical-align:top;">:</td><td><div>default</div></td></tr><tr><td style="font-weight:bold;vertical-align:top;">cookies</td><td style="vertical-align:top;">:</td><td><div><table><tr><td style="font-weight:bold;vertical-align:top;">session_id_admin</td><td style="vertical-align:top;">:</td><td><div>127.0.0.1-221aac33-14e4-4db5-a48a-cd0cba5a03c7<table><tr><td style="font-weight:bold;vertical-align:top;">comment</td><td style="vertical-align:top;">:</td><td><div></div></td></tr><tr><td style="font-weight:bold;vertical-align:top;">domain</td><td style="vertical-align:top;">:</td><td><div></div></td></tr><tr><td style="font-weight:bold;vertical-align:top;">expires</td><td style="vertical-align:top;">:</td><td><div></div></td></tr><tr><td style="font-weight:bold;vertical-align:top;">httponly</td><td style="vertical-align:top;">:</td><td><div></div></td></tr><tr><td style="font-weight:bold;vertical-align:top;">max-age</td><td style="vertical-align:top;">:</td><td><div></div></td></tr><tr><td style="font-weight:bold;vertical-align:top;">path</td><td style="vertical-align:top;">:</td><td><div></div></td></tr><tr><td style="font-weight:bold;vertical-align:top;">secure</td><td style="vertical-align:top;">:</td><td><div></div></td></tr><tr><td style="font-weight:bold;vertical-align:top;">version</td><td style="vertical-align:top;">:</td><td><div></div></td></tr></table></div></td></tr><tr><td style="font-weight:bold;vertical-align:top;">session_id_eventcentral</td><td style="vertical-align:top;">:</td><td><div>127.0.0.1-3406bf44-701c-4594-a71c-842d8af98d38<table><tr><td style="font-weight:bold;vertical-align:top;">comment</td><td style="vertical-align:top;">:</td><td><div></div></td></tr><tr><td style="font-weight:bold;vertical-align:top;">domain</td><td style="vertical-align:top;">:</td><td><div></div></td></tr><tr><td style="font-weight:bold;vertical-align:top;">expires</td><td style="vertical-align:top;">:</td><td><div></div></td></tr><tr><td style="font-weight:bold;vertical-align:top;">httponly</td><td style="vertical-align:top;">:</td><td><div></div></td></tr><tr><td style="font-weight:bold;vertical-align:top;">max-age</td><td style="vertical-align:top;">:</td><td><div></div></td></tr><tr><td style="font-weight:bold;vertical-align:top;">path</td><td style="vertical-align:top;">:</td><td><div></div></td></tr><tr><td style="font-weight:bold;vertical-align:top;">secure</td><td style="vertical-align:top;">:</td><td><div></div></td></tr><tr><td style="font-weight:bold;vertical-align:top;">version</td><td style="vertical-align:top;">:</td><td><div></div></td></tr></table></div></td></tr><tr><td style="font-weight:bold;vertical-align:top;">session_id_images</td><td style="vertical-align:top;">:</td><td><div>127.0.0.1-028f0903-653d-421d-a725-b0adb17b3832<table><tr><td style="font-weight:bold;vertical-align:top;">comment</td><td style="vertical-align:top;">:</td><td><div></div></td></tr><tr><td style="font-weight:bold;vertical-align:top;">domain</td><td style="vertical-align:top;">:</td><td><div></div></td></tr><tr><td style="font-weight:bold;vertical-align:top;">expires</td><td style="vertical-align:top;">:</td><td><div></div></td></tr><tr><td style="font-weight:bold;vertical-align:top;">httponly</td><td style="vertical-align:top;">:</td><td><div></div></td></tr><tr><td style="font-weight:bold;vertical-align:top;">max-age</td><td style="vertical-align:top;">:</td><td><div></div></td></tr><tr><td style="font-weight:bold;vertical-align:top;">path</td><td style="vertical-align:top;">:</td><td><div></div></td></tr><tr><td style="font-weight:bold;vertical-align:top;">secure</td><td style="vertical-align:top;">:</td><td><div></div></td></tr><tr><td style="font-weight:bold;vertical-align:top;">version</td><td style="vertical-align:top;">:</td><td><div></div></td></tr></table></div></td></tr><tr><td style="font-weight:bold;vertical-align:top;">session_id_lol1</td><td style="vertical-align:top;">:</td><td><div>127.0.0.1-ecc80982-3ee5-4104-a6f5-8757c49d491a<table><tr><td style="font-weight:bold;vertical-align:top;">comment</td><td style="vertical-align:top;">:</td><td><div></div></td></tr><tr><td style="font-weight:bold;vertical-align:top;">domain</td><td style="vertical-align:top;">:</td><td><div></div></td></tr><tr><td style="font-weight:bold;vertical-align:top;">expires</td><td style="vertical-align:top;">:</td><td><div></div></td></tr><tr><td style="font-weight:bold;vertical-align:top;">httponly</td><td style="vertical-align:top;">:</td><td><div></div></td></tr><tr><td style="font-weight:bold;vertical-align:top;">max-age</td><td style="vertical-align:top;">:</td><td><div></div></td></tr><tr><td style="font-weight:bold;vertical-align:top;">path</td><td style="vertical-align:top;">:</td><td><div></div></td></tr><tr><td style="font-weight:bold;vertical-align:top;">secure</td><td style="vertical-align:top;">:</td><td><div></div></td></tr><tr><td style="font-weight:bold;vertical-align:top;">version</td><td style="vertical-align:top;">:</td><td><div></div></td></tr></table></div></td></tr><tr><td style="font-weight:bold;vertical-align:top;">session_id_myapp</td><td style="vertical-align:top;">:</td><td><div>127.0.0.1-25537367-4700-421b-ab2e-d44890393ff2<table><tr><td style="font-weight:bold;vertical-align:top;">comment</td><td style="vertical-align:top;">:</td><td><div></div></td></tr><tr><td style="font-weight:bold;vertical-align:top;">domain</td><td style="vertical-align:top;">:</td><td><div></div></td></tr><tr><td style="font-weight:bold;vertical-align:top;">expires</td><td style="vertical-align:top;">:</td><td><div></div></td></tr><tr><td style="font-weight:bold;vertical-align:top;">httponly</td><td style="vertical-align:top;">:</td><td><div></div></td></tr><tr><td style="font-weight:bold;vertical-align:top;">max-age</td><td style="vertical-align:top;">:</td><td><div></div></td></tr><tr><td style="font-weight:bold;vertical-align:top;">path</td><td style="vertical-align:top;">:</td><td><div></div></td></tr><tr><td style="font-weight:bold;vertical-align:top;">secure</td><td style="vertical-align:top;">:</td><td><div></div></td></tr><tr><td style="font-weight:bold;vertical-align:top;">version</td><td style="vertical-align:top;">:</td><td><div></div></td></tr></table></div></td></tr><tr><td style="font-weight:bold;vertical-align:top;">session_id_nono</td><td style="vertical-align:top;">:</td><td><div>127.0.0.1-464a2528-1d78-4223-a2db-e9664c2ccc00<table><tr><td style="font-weight:bold;vertical-align:top;">comment</td><td style="vertical-align:top;">:</td><td><div></div></td></tr><tr><td style="font-weight:bold;vertical-align:top;">domain</td><td style="vertical-align:top;">:</td><td><div></div></td></tr><tr><td style="font-weight:bold;vertical-align:top;">expires</td><td style="vertical-align:top;">:</td><td><div></div></td></tr><tr><td style="font-weight:bold;vertical-align:top;">httponly</td><td style="vertical-align:top;">:</td><td><div></div></td></tr><tr><td style="font-weight:bold;vertical-align:top;">max-age</td><td style="vertical-align:top;">:</td><td><div></div></td></tr><tr><td style="font-weight:bold;vertical-align:top;">path</td><td style="vertical-align:top;">:</td><td><div></div></td></tr><tr><td style="font-weight:bold;vertical-align:top;">secure</td><td style="vertical-align:top;">:</td><td><div></div></td></tr><tr><td style="font-weight:bold;vertical-align:top;">version</td><td style="vertical-align:top;">:</td><td><div></div></td></tr></table></div></td></tr><tr><td style="font-weight:bold;vertical-align:top;">session_id_notes</td><td style="vertical-align:top;">:</td><td><div>127.0.0.1-ae125fab-feb6-431b-afbe-d7bd710d9d7c<table><tr><td style="font-weight:bold;vertical-align:top;">comment</td><td style="vertical-align:top;">:</td><td><div></div></td></tr><tr><td style="font-weight:bold;vertical-align:top;">domain</td><td style="vertical-align:top;">:</td><td><div></div></td></tr><tr><td style="font-weight:bold;vertical-align:top;">expires</td><td style="vertical-align:top;">:</td><td><div></div></td></tr><tr><td style="font-weight:bold;vertical-align:top;">httponly</td><td style="vertical-align:top;">:</td><td><div></div></td></tr><tr><td style="font-weight:bold;vertical-align:top;">max-age</td><td style="vertical-align:top;">:</td><td><div></div></td></tr><tr><td style="font-weight:bold;vertical-align:top;">path</td><td style="vertical-align:top;">:</td><td><div></div></td></tr><tr><td style="font-weight:bold;vertical-align:top;">secure</td><td style="vertical-align:top;">:</td><td><div></div></td></tr><tr><td style="font-weight:bold;vertical-align:top;">version</td><td style="vertical-align:top;">:</td><td><div></div></td></tr></table></div></td></tr><tr><td style="font-weight:bold;vertical-align:top;">session_id_welcome</td><td style="vertical-align:top;">:</td><td><div>127.0.0.1-93d1d374-349d-4750-b669-00f0a1fa559b<table><tr><td style="font-weight:bold;vertical-align:top;">comment</td><td style="vertical-align:top;">:</td><td><div></div></td></tr><tr><td style="font-weight:bold;vertical-align:top;">domain</td><td style="vertical-align:top;">:</td><td><div></div></td></tr><tr><td style="font-weight:bold;vertical-align:top;">expires</td><td style="vertical-align:top;">:</td><td><div></div></td></tr><tr><td style="font-weight:bold;vertical-align:top;">httponly</td><td style="vertical-align:top;">:</td><td><div></div></td></tr><tr><td style="font-weight:bold;vertical-align:top;">max-age</td><td style="vertical-align:top;">:</td><td><div></div></td></tr><tr><td style="font-weight:bold;vertical-align:top;">path</td><td style="vertical-align:top;">:</td><td><div></div></td></tr><tr><td style="font-weight:bold;vertical-align:top;">secure</td><td style="vertical-align:top;">:</td><td><div></div></td></tr><tr><td style="font-weight:bold;vertical-align:top;">version</td><td style="vertical-align:top;">:</td><td><div></div></td></tr></table></div></td></tr></table></div></td></tr><tr><td style="font-weight:bold;vertical-align:top;">env</td><td style="vertical-align:top;">:</td><td><div><table><tr><td style="font-weight:bold;vertical-align:top;">HTTP_ACCEPT</td><td style="vertical-align:top;">:</td><td><div>text/html,application/xhtml+xml,application/xml;q=0.9,image/webp,*/*;q=0.8</div></td></tr><tr><td style="font-weight:bold;vertical-align:top;">HTTP_ACCEPT_ENCODING</td><td style="vertical-align:top;">:</td><td><div>gzip,deflate,sdch</div></td></tr><tr><td style="font-weight:bold;vertical-align:top;">HTTP_ACCEPT_LANGUAGE</td><td style="vertical-align:top;">:</td><td><div>en-US,en;q=0.8</div></td></tr><tr><td style="font-weight:bold;vertical-align:top;">HTTP_CACHE_CONTROL</td><td style="vertical-align:top;">:</td><td><div>max-age=0</div></td></tr><tr><td style="font-weight:bold;vertical-align:top;">HTTP_CONNECTION</td><td style="vertical-align:top;">:</td><td><div>keep-alive</div></td></tr><tr><td style="font-weight:bold;vertical-align:top;">HTTP_COOKIE</td><td style="vertical-align:top;">:</td><td><div>session_id_images=127.0.0.1-028f0903-653d-421d-a725-b0adb17b3832; session_id_nono=127.0.0.1-464a2528-1d78-4223-a2db-e9664c2ccc00; session_id_notes=127.0.0.1-ae125fab-feb6-431b-afbe-d7bd710d9d7c; session_id_eventcentral=127.0.0.1-3406bf44-701c-4594-a71c-842d8af98d38; session_id_myapp=127.0.0.1-25537367-4700-421b-ab2e-d44890393ff2; session_id_lol1=127.0.0.1-ecc80982-3ee5-4104-a6f5-8757c49d491a; session_id_welcome=127.0.0.1-93d1d374-349d-4750-b669-00f0a1fa559b; session_id_admin=127.0.0.1-221aac33-14e4-4db5-a48a-cd0cba5a03c7</div></td></tr><tr><td style="font-weight:bold;vertical-align:top;">HTTP_HOST</td><td style="vertical-align:top;">:</td><td><div>127.0.0.1:8000</div></td></tr><tr><td style="font-weight:bold;vertical-align:top;">HTTP_USER_AGENT</td><td style="vertical-align:top;">:</td><td><div>Mozilla/5.0 (Windows NT 6.1; WOW64) AppleWebKit/537.36 (KHTML, like Gecko) Chrome/37.0.2062.124 Safari/537.36</div></td></tr><tr><td style="font-weight:bold;vertical-align:top;">PATH_INFO</td><td style="vertical-align:top;">:</td><td><div>/EventCentral/default/index</div></td></tr><tr><td style="font-weight:bold;vertical-align:top;">QUERY_STRING</td><td style="vertical-align:top;">:</td><td><div></div></td></tr><tr><td style="font-weight:bold;vertical-align:top;">REMOTE_ADDR</td><td style="vertical-align:top;">:</td><td><div>127.0.0.1</div></td></tr><tr><td style="font-weight:bold;vertical-align:top;">REMOTE_PORT</td><td style="vertical-align:top;">:</td><td><div>52994</div></td></tr><tr><td style="font-weight:bold;vertical-align:top;">REQUEST_METHOD</td><td style="vertical-align:top;">:</td><td><div>GET</div></td></tr><tr><td style="font-weight:bold;vertical-align:top;">SCRIPT_NAME</td><td style="vertical-align:top;">:</td><td><div></div></td></tr><tr><td style="font-weight:bold;vertical-align:top;">SERVER_NAME</td><td style="vertical-align:top;">:</td><td><div>Desmond-HP</div></td></tr><tr><td style="font-weight:bold;vertical-align:top;">SERVER_PORT</td><td style="vertical-align:top;">:</td><td><div>8000</div></td></tr><tr><td style="font-weight:bold;vertical-align:top;">SERVER_PROTOCOL</td><td style="vertical-align:top;">:</td><td><div>HTTP/1.1</div></td></tr><tr><td style="font-weight:bold;vertical-align:top;">SERVER_SOFTWARE</td><td style="vertical-align:top;">:</td><td><div>Rocket 1.2.6</div></td></tr><tr><td style="font-weight:bold;vertical-align:top;">app_folders</td><td style="vertical-align:top;">:</td><td><div>set([&#x27;C:\\\\Users\\\\Desmond\\\\Documents\\\\web2py\\\\applications\\\\welcome\\\\&#x27;, &#x27;C:\\\\Users\\\\Desmond\\\\Documents\\\\web2py\\\\applications\\\\lol1\\\\&#x27;, &#x27;C:\\\\Users\\\\Desmond\\\\Documents\\\\web2py\\\\applications\\\\nono\\\\&#x27;, &#x27;C:\\\\Users\\\\Desmond\\\\Documents\\\\web2py\\\\applications\\\\EventCentral\\\\&#x27;, &#x27;C:\\\\Users\\\\Desmond\\\\Documents\\\\web2py\\\\applications\\\\admin\\\\&#x27;, &#x27;C:\\\\Users\\\\Desmond\\\\Documents\\\\web2py\\\\applications\\\\myapp\\\\&#x27;, &#x27;C:\\\\Users\\\\Desmond\\\\Documents\\\\web2py\\\\applications\\\\notes\\\\&#x27;])</div></td></tr><tr><td style="font-weight:bold;vertical-align:top;">applications_parent</td><td style="vertical-align:top;">:</td><td><div>C:\\Users\\Desmond\\Documents\\web2py</div></td></tr><tr><td style="font-weight:bold;vertical-align:top;">cmd_args</td><td style="vertical-align:top;">:</td><td><div><table></table></div></td></tr><tr><td style="font-weight:bold;vertical-align:top;">cmd_options</td><td style="vertical-align:top;">:</td><td><div>&lt;Values at 0x3076350: {&#x27;verbose&#x27;: False, &#x27;ip&#x27;: &#x27;127.0.0.1&#x27;, &#x27;debuglevel&#x27;: 30, &#x27;with_scheduler&#x27;: False, &#x27;ips&#x27;: [&#x27;192.168.134.1&#x27;, &#x27;fe80::e052:802a:33c5:6a7c%14&#x27;, &#x27;fe80::21a1:6e9:f7cc:93e3%33&#x27;, &#x27;fe80::5cb0:9571:df1b:db65%32&#x27;, &#x27;192.168.132.1&#x27;, &#x27;10.0.0.9&#x27;, &#x27;fe80::6973:2125:9e63:66a7%28&#x27;, &#x27;192.168.56.1&#x27;], &#x27;shutdown_timeout&#x27;: 5, &#x27;taskbar&#x27;: False, &#x27;with_coverage&#x27;: False, &#x27;scheduler_groups&#x27;: None, &#x27;port&#x27;: 8000, &#x27;maxthreads&#x27;: None, &#x27;softcron&#x27;: False, &#x27;server_name&#x27;: &#x27;Desmond-HP&#x27;, &#x27;bpython&#x27;: False, &#x27;nogui&#x27;: False, &#x27;pid_filename&#x27;: &#x27;httpserver.pid&#x27;, &#x27;extcron&#x27;: False, &#x27;runcron&#x27;: False, &#x27;run_system_tests&#x27;: False, &#x27;test&#x27;: None, &#x27;folder&#x27;: &#x27;C:\\\\Users\\\\Desmond\\\\Documents\\\\web2py&#x27;, &#x27;config&#x27;: &#x27;&#x27;, &#x27;minthreads&#x27;: None, &#x27;shell&#x27;: None, &#x27;run&#x27;: &#x27;&#x27;, &#x27;log_filename&#x27;: &#x27;httpserver.log&#x27;, &#x27;profiler_dir&#x27;: None, &#x27;args&#x27;: [&#x27;&#x27;], &#x27;socket_timeout&#x27;: 5, &#x27;ssl_ca_certificate&#x27;: None, &#x27;scheduler&#x27;: None, &#x27;interfaces&#x27;: None, &#x27;ssl_private_key&#x27;: &#x27;&#x27;, &#x27;gae&#x27;: None, &#x27;password&#x27;: &#x27;&lt;ask&gt;&#x27;, &#x27;request_queue_size&#x27;: 5, &#x27;ssl_certificate&#x27;: &#x27;&#x27;, &#x27;cronjob&#x27;: False, &#x27;numthreads&#x27;: None, &#x27;quiet&#x27;: False, &#x27;import_models&#x27;: False, &#x27;timeout&#x27;: 10, &#x27;plain&#x27;: False, &#x27;nobanner&#x27;: False}&gt;</div></td></tr><tr><td style="font-weight:bold;vertical-align:top;">db_sessions</td><td style="vertical-align:top;">:</td><td><div>set([])</div></td></tr><tr><td style="font-weight:bold;vertical-align:top;">debugging</td><td style="vertical-align:top;">:</td><td><div>True</div></td></tr><tr><td style="font-weight:bold;vertical-align:top;">gluon_parent</td><td style="vertical-align:top;">:</td><td><div>C:\\Users\\Desmond\\Documents\\web2py</div></td></tr><tr><td style="font-weight:bold;vertical-align:top;">http_accept</td><td style="vertical-align:top;">:</td><td><div>text/html,application/xhtml+xml,application/xml;q=0.9,image/webp,*/*;q=0.8</div></td></tr><tr><td style="font-weight:bold;vertical-align:top;">http_accept_encoding</td><td style="vertical-align:top;">:</td><td><div>gzip,deflate,sdch</div></td></tr><tr><td style="font-weight:bold;vertical-align:top;">http_accept_language</td><td style="vertical-align:top;">:</td><td><div>en-US,en;q=0.8</div></td></tr><tr><td style="font-weight:bold;vertical-align:top;">http_cache_control</td><td style="vertical-align:top;">:</td><td><div>max-age=0</div></td></tr><tr><td style="font-weight:bold;vertical-align:top;">http_connection</td><td style="vertical-align:top;">:</td><td><div>keep-alive</div></td></tr><tr><td style="font-weight:bold;vertical-align:top;">http_cookie</td><td style="vertical-align:top;">:</td><td><div>session_id_images=127.0.0.1-028f0903-653d-421d-a725-b0adb17b3832; session_id_nono=127.0.0.1-464a2528-1d78-4223-a2db-e9664c2ccc00; session_id_notes=127.0.0.1-ae125fab-feb6-431b-afbe-d7bd710d9d7c; session_id_eventcentral=127.0.0.1-3406bf44-701c-4594-a71c-842d8af98d38; session_id_myapp=127.0.0.1-25537367-4700-421b-ab2e-d44890393ff2; session_id_lol1=127.0.0.1-ecc80982-3ee5-4104-a6f5-8757c49d491a; session_id_welcome=127.0.0.1-93d1d374-349d-4750-b669-00f0a1fa559b; session_id_admin=127.0.0.1-221aac33-14e4-4db5-a48a-cd0cba5a03c7</div></td></tr><tr><td style="font-weight:bold;vertical-align:top;">http_host</td><td style="vertical-align:top;">:</td><td><div>127.0.0.1:8000</div></td></tr><tr><td style="font-weight:bold;vertical-align:top;">http_user_agent</td><td style="vertical-align:top;">:</td><td><div>Mozilla/5.0 (Windows NT 6.1; WOW64) AppleWebKit/537.36 (KHTML, like Gecko) Chrome/37.0.2062.124 Safari/537.36</div></td></tr><tr><td style="font-weight:bold;vertical-align:top;">is_jython</td><td style="vertical-align:top;">:</td><td><div>False</div></td></tr><tr><td style="font-weight:bold;vertical-align:top;">is_pypy</td><td style="vertical-align:top;">:</td><td><div>False</div></td></tr><tr><td style="font-weight:bold;vertical-align:top;">is_source</td><td style="vertical-align:top;">:</td><td><div>False</div></td></tr><tr><td style="font-weight:bold;vertical-align:top;">local_hosts</td><td style="vertical-align:top;">:</td><td><div><table><tr><td><div>fe80::e052:802a:33c5:6a7c%14</div></td></tr><tr><td><div>fe80::21a1:6e9:f7cc:93e3%33</div></td></tr><tr><td><div>::ffff:127.0.0.1</div></td></tr><tr><td><div>::1</div></td></tr><tr><td><div>fe80::5cb0:9571:df1b:db65%32</div></td></tr><tr><td><div>192.168.132.1</div></td></tr><tr><td><div>10.0.0.9</div></td></tr><tr><td><div>192.168.56.1</div></td></tr><tr><td><div>fe80::6973:2125:9e63:66a7%28</div></td></tr><tr><td><div>Desmond-HP</div></td></tr><tr><td><div>127.0.0.1</div></td></tr><tr><td><div>192.168.134.1</div></td></tr></table></div></td></tr><tr><td style="font-weight:bold;vertical-align:top;">path_info</td><td style="vertical-align:top;">:</td><td><div>/EventCentral/default/index</div></td></tr><tr><td style="font-weight:bold;vertical-align:top;">query_string</td><td style="vertical-align:top;">:</td><td><div></div></td></tr><tr><td style="font-weight:bold;vertical-align:top;">remote_addr</td><td style="vertical-align:top;">:</td><td><div>127.0.0.1</div></td></tr><tr><td style="font-weight:bold;vertical-align:top;">remote_port</td><td style="vertical-align:top;">:</td><td><div>52994</div></td></tr><tr><td style="font-weight:bold;vertical-align:top;">request_method</td><td style="vertical-align:top;">:</td><td><div>GET</div></td></tr><tr><td style="font-weight:bold;vertical-align:top;">request_uri</td><td style="vertical-align:top;">:</td><td><div>/EventCentral/default/index</div></td></tr><tr><td style="font-weight:bold;vertical-align:top;">script_name</td><td style="vertical-align:top;">:</td><td><div></div></td></tr><tr><td style="font-weight:bold;vertical-align:top;">server_name</td><td style="vertical-align:top;">:</td><td><div>Desmond-HP</div></td></tr><tr><td style="font-weight:bold;vertical-align:top;">server_port</td><td style="vertical-align:top;">:</td><td><div>8000</div></td></tr><tr><td style="font-weight:bold;vertical-align:top;">server_protocol</td><td style="vertical-align:top;">:</td><td><div>HTTP/1.1</div></td></tr><tr><td style="font-weight:bold;vertical-align:top;">server_software</td><td style="vertical-align:top;">:</td><td><div>Rocket 1.2.6</div></td></tr><tr><td style="font-weight:bold;vertical-align:top;">web2py_path</td><td style="vertical-align:top;">:</td><td><div>C:\\Users\\Desmond\\Documents\\web2py</div></td></tr><tr><td style="font-weight:bold;vertical-align:top;">web2py_version</td><td style="vertical-align:top;">:</td><td><div>2.9.11-stable+timestamp.2014.09.15.23.35.11</div></td></tr><tr><td style="font-weight:bold;vertical-align:top;">wsgi.errors</td><td style="vertical-align:top;">:</td><td><div>&lt;open file &#x27;&lt;stderr&gt;&#x27;, mode &#x27;w&#x27; at 0x01D060D0&gt;</div></td></tr><tr><td style="font-weight:bold;vertical-align:top;">wsgi.file_wrapper</td><td style="vertical-align:top;">:</td><td><div>&lt;class wsgiref.util.FileWrapper at 0x01FFFDF8&gt;</div></td></tr><tr><td style="font-weight:bold;vertical-align:top;">wsgi.input</td><td style="vertical-align:top;">:</td><td><div>&lt;socket._fileobject object at 0x07961D30&gt;</div></td></tr><tr><td style="font-weight:bold;vertical-align:top;">wsgi.multiprocess</td><td style="vertical-align:top;">:</td><td><div>False</div></td></tr><tr><td style="font-weight:bold;vertical-align:top;">wsgi.multithread</td><td style="vertical-align:top;">:</td><td><div>True</div></td></tr><tr><td style="font-weight:bold;vertical-align:top;">wsgi.run_once</td><td style="vertical-align:top;">:</td><td><div>False</div></td></tr><tr><td style="font-weight:bold;vertical-align:top;">wsgi.url_scheme</td><td style="vertical-align:top;">:</td><td><div>http</div></td></tr><tr><td style="font-weight:bold;vertical-align:top;">wsgi.version</td><td style="vertical-align:top;">:</td><td><div><table><tr><td><div>1</div></td></tr><tr><td><div>0</div></td></tr></table></div></td></tr><tr><td style="font-weight:bold;vertical-align:top;">wsgi_errors</td><td style="vertical-align:top;">:</td><td><div>&lt;open file &#x27;&lt;stderr&gt;&#x27;, mode &#x27;w&#x27; at 0x01D060D0&gt;</div></td></tr><tr><td style="font-weight:bold;vertical-align:top;">wsgi_file_wrapper</td><td style="vertical-align:top;">:</td><td><div>&lt;class wsgiref.util.FileWrapper at 0x01FFFDF8&gt;</div></td></tr><tr><td style="font-weight:bold;vertical-align:top;">wsgi_input</td><td style="vertical-align:top;">:</td><td><div>&lt;socket._fileobject object at 0x07961D30&gt;</div></td></tr><tr><td style="font-weight:bold;vertical-align:top;">wsgi_multiprocess</td><td style="vertical-align:top;">:</td><td><div>False</div></td></tr><tr><td style="font-weight:bold;vertical-align:top;">wsgi_multithread</td><td style="vertical-align:top;">:</td><td><div>True</div></td></tr><tr><td style="font-weight:bold;vertical-align:top;">wsgi_run_once</td><td style="vertical-align:top;">:</td><td><div>False</div></td></tr><tr><td style="font-weight:bold;vertical-align:top;">wsgi_url_scheme</td><td style="vertical-align:top;">:</td><td><div>http</div></td></tr><tr><td style="font-weight:bold;vertical-align:top;">wsgi_version</td><td style="vertical-align:top;">:</td><td><div><table><tr><td><div>1</div></td></tr><tr><td><div>0</div></td></tr></table></div></td></tr></table></div></td></tr><tr><td style="font-weight:bold;vertical-align:top;">extension</td><td style="vertical-align:top;">:</td><td><div>html</div></td></tr><tr><td style="font-weight:bold;vertical-align:top;">folder</td><td style="vertical-align:top;">:</td><td><div>C:\\Users\\Desmond\\Documents\\web2py\\applications\\EventCentral\\</div></td></tr><tr><td style="font-weight:bold;vertical-align:top;">function</td><td style="vertical-align:top;">:</td><td><div>index</div></td></tr><tr><td style="font-weight:bold;vertical-align:top;">global_settings</td><td style="vertical-align:top;">:</td><td><div><table><tr><td style="font-weight:bold;vertical-align:top;">app_folders</td><td style="vertical-align:top;">:</td><td><div>set([&#x27;C:\\\\Users\\\\Desmond\\\\Documents\\\\web2py\\\\applications\\\\welcome\\\\&#x27;, &#x27;C:\\\\Users\\\\Desmond\\\\Documents\\\\web2py\\\\applications\\\\lol1\\\\&#x27;, &#x27;C:\\\\Users\\\\Desmond\\\\Documents\\\\web2py\\\\applications\\\\nono\\\\&#x27;, &#x27;C:\\\\Users\\\\Desmond\\\\Documents\\\\web2py\\\\applications\\\\EventCentral\\\\&#x27;, &#x27;C:\\\\Users\\\\Desmond\\\\Documents\\\\web2py\\\\applications\\\\admin\\\\&#x27;, &#x27;C:\\\\Users\\\\Desmond\\\\Documents\\\\web2py\\\\applications\\\\myapp\\\\&#x27;, &#x27;C:\\\\Users\\\\Desmond\\\\Documents\\\\web2py\\\\applications\\\\notes\\\\&#x27;])</div></td></tr><tr><td style="font-weight:bold;vertical-align:top;">applications_parent</td><td style="vertical-align:top;">:</td><td><div>C:\\Users\\Desmond\\Documents\\web2py</div></td></tr><tr><td style="font-weight:bold;vertical-align:top;">cmd_args</td><td style="vertical-align:top;">:</td><td><div><table></table></div></td></tr><tr><td style="font-weight:bold;vertical-align:top;">cmd_options</td><td style="vertical-align:top;">:</td><td><div>&lt;Values at 0x3076350: {&#x27;verbose&#x27;: False, &#x27;ip&#x27;: &#x27;127.0.0.1&#x27;, &#x27;debuglevel&#x27;: 30, &#x27;with_scheduler&#x27;: False, &#x27;ips&#x27;: [&#x27;192.168.134.1&#x27;, &#x27;fe80::e052:802a:33c5:6a7c%14&#x27;, &#x27;fe80::21a1:6e9:f7cc:93e3%33&#x27;, &#x27;fe80::5cb0:9571:df1b:db65%32&#x27;, &#x27;192.168.132.1&#x27;, &#x27;10.0.0.9&#x27;, &#x27;fe80::6973:2125:9e63:66a7%28&#x27;, &#x27;192.168.56.1&#x27;], &#x27;shutdown_timeout&#x27;: 5, &#x27;taskbar&#x27;: False, &#x27;with_coverage&#x27;: False, &#x27;scheduler_groups&#x27;: None, &#x27;port&#x27;: 8000, &#x27;maxthreads&#x27;: None, &#x27;softcron&#x27;: False, &#x27;server_name&#x27;: &#x27;Desmond-HP&#x27;, &#x27;bpython&#x27;: False, &#x27;nogui&#x27;: False, &#x27;pid_filename&#x27;: &#x27;httpserver.pid&#x27;, &#x27;extcron&#x27;: False, &#x27;runcron&#x27;: False, &#x27;run_system_tests&#x27;: False, &#x27;test&#x27;: None, &#x27;folder&#x27;: &#x27;C:\\\\Users\\\\Desmond\\\\Documents\\\\web2py&#x27;, &#x27;config&#x27;: &#x27;&#x27;, &#x27;minthreads&#x27;: None, &#x27;shell&#x27;: None, &#x27;run&#x27;: &#x27;&#x27;, &#x27;log_filename&#x27;: &#x27;httpserver.log&#x27;, &#x27;profiler_dir&#x27;: None, &#x27;args&#x27;: [&#x27;&#x27;], &#x27;socket_timeout&#x27;: 5, &#x27;ssl_ca_certificate&#x27;: None, &#x27;scheduler&#x27;: None, &#x27;interfaces&#x27;: None, &#x27;ssl_private_key&#x27;: &#x27;&#x27;, &#x27;gae&#x27;: None, &#x27;password&#x27;: &#x27;&lt;ask&gt;&#x27;, &#x27;request_queue_size&#x27;: 5, &#x27;ssl_certificate&#x27;: &#x27;&#x27;, &#x27;cronjob&#x27;: False, &#x27;numthreads&#x27;: None, &#x27;quiet&#x27;: False, &#x27;import_models&#x27;: False, &#x27;timeout&#x27;: 10, &#x27;plain&#x27;: False, &#x27;nobanner&#x27;: False}&gt;</div></td></tr><tr><td style="font-weight:bold;vertical-align:top;">db_sessions</td><td style="vertical-align:top;">:</td><td><div>set([])</div></td></tr><tr><td style="font-weight:bold;vertical-align:top;">debugging</td><td style="vertical-align:top;">:</td><td><div>True</div></td></tr><tr><td style="font-weight:bold;vertical-align:top;">gluon_parent</td><td style="vertical-align:top;">:</td><td><div>C:\\Users\\Desmond\\Documents\\web2py</div></td></tr><tr><td style="font-weight:bold;vertical-align:top;">is_jython</td><td style="vertical-align:top;">:</td><td><div>False</div></td></tr><tr><td style="font-weight:bold;vertical-align:top;">is_pypy</td><td style="vertical-align:top;">:</td><td><div>False</div></td></tr><tr><td style="font-weight:bold;vertical-align:top;">is_source</td><td style="vertical-align:top;">:</td><td><div>False</div></td></tr><tr><td style="font-weight:bold;vertical-align:top;">local_hosts</td><td style="vertical-align:top;">:</td><td><div><table><tr><td><div>fe80::e052:802a:33c5:6a7c%14</div></td></tr><tr><td><div>fe80::21a1:6e9:f7cc:93e3%33</div></td></tr><tr><td><div>::ffff:127.0.0.1</div></td></tr><tr><td><div>::1</div></td></tr><tr><td><div>fe80::5cb0:9571:df1b:db65%32</div></td></tr><tr><td><div>192.168.132.1</div></td></tr><tr><td><div>10.0.0.9</div></td></tr><tr><td><div>192.168.56.1</div></td></tr><tr><td><div>fe80::6973:2125:9e63:66a7%28</div></td></tr><tr><td><div>Desmond-HP</div></td></tr><tr><td><div>127.0.0.1</div></td></tr><tr><td><div>192.168.134.1</div></td></tr></table></div></td></tr><tr><td style="font-weight:bold;vertical-align:top;">web2py_version</td><td style="vertical-align:top;">:</td><td><div>2.9.11-stable+timestamp.2014.09.15.23.35.11</div></td></tr></table></div></td></tr><tr><td style="font-weight:bold;vertical-align:top;">is_https</td><td style="vertical-align:top;">:</td><td><div>False</div></td></tr><tr><td style="font-weight:bold;vertical-align:top;">is_local</td><td style="vertical-align:top;">:</td><td><div>True</div></td></tr><tr><td style="font-weight:bold;vertical-align:top;">is_restful</td><td style="vertical-align:top;">:</td><td><div>False</div></td></tr><tr><td style="font-weight:bold;vertical-align:top;">is_sheduler</td><td style="vertical-align:top;">:</td><td><div>None</div></td></tr><tr><td style="font-weight:bold;vertical-align:top;">is_shell</td><td style="vertical-align:top;">:</td><td><div>None</div></td></tr><tr><td style="font-weight:bold;vertical-align:top;">now</td><td style="vertical-align:top;">:</td><td><div>datetime.datetime(2014, 10, 28, 18, 2, 26, 61000)</div></td></tr><tr><td style="font-weight:bold;vertical-align:top;">raw_args</td><td style="vertical-align:top;">:</td><td><div></div></td></tr><tr><td style="font-weight:bold;vertical-align:top;">raw_extension</td><td style="vertical-align:top;">:</td><td><div>None</div></td></tr><tr><td style="font-weight:bold;vertical-align:top;">url</td><td style="vertical-align:top;">:</td><td><div>/EventCentral/default/index</div></td></tr><tr><td style="font-weight:bold;vertical-align:top;">utcnow</td><td style="vertical-align:top;">:</td><td><div>datetime.datetime(2014, 10, 29, 1, 2, 26, 61000)</div></td></tr><tr><td style="font-weight:bold;vertical-align:top;">uuid</td><td style="vertical-align:top;">:</td><td><div>EventCentral/127.0.0.1.2014-10-28.18-02-26.6ab75145-513f-4ec4-8ba2-fb09b1b49db8</div></td></tr><tr><td style="font-weight:bold;vertical-align:top;">wsgi</td><td style="vertical-align:top;">:</td><td><div>&lt;gluon.main.LazyWSGI object at 0x071B8B70&gt;</div></td></tr></table></div>'
tRp58
sS'frames'
p59
(lp60
(dp61
S'file'
p62
S'C:\\Users\\Desmond\\Documents\\web2py\\gluon\\restricted.py'
p63
sS'dump'
p64
(dp65
sS'lnum'
p66
I224
sS'lines'
p67
(dp68
sS'call'
p69
S"(code='# -*- coding: utf-8 -*-\\n\\n#comments are comments ...writable = db.comment.poster_id.readable = False\\n', environment={'A': <class 'gluon.html.A'>, 'ANY_OF': <class 'gluon.validators.ANY_OF'>, 'ASSIGNJS': <function ASSIGNJS>, 'Auth': <class 'gluon.tools.Auth'>, 'B': <class 'gluon.html.B'>, 'BEAUTIFY': <class 'gluon.html.BEAUTIFY'>, 'BODY': <class 'gluon.html.BODY'>, 'BR': <class 'gluon.html.BR'>, 'BUTTON': <class 'gluon.html.BUTTON'>, 'CAT': <class 'gluon.html.CAT'>, ...}, layer=r'C:\\Users\\Desmond\\Documents\\web2py\\applications\\EventCentral\\models\\d_comments.py')"
p70
sS'func'
p71
S'restricted'
p72
sa(dp73
g62
S'C:\\Users\\Desmond\\Documents\\web2py\\applications\\EventCentral\\models\\d_comments.py'
p74
sg64
(dp75
S'Field'
p76
S"<class 'gluon.dal.Field'>"
p77
sS'integer'
p78
S'undefined'
p79
ssg66
I6
sg67
(dp80
I2
S''
sI3
S'#comments are comments on an event'
p81
sI4
S"db.define_table('comment',                            #will probably be modified later to include type of post and whatever else"
p82
sI5
S"                Field('event_id', 'reference event'),"
p83
sI6
S"                Field('comment_type', integer), #0=?(normal comment), 1=?(question), 2=?(awnser)"
p84
sI7
S"                Field('text', text),"
p85
sI8
S"                Field('creation_time', datetime),"
p86
sI9
S"                Field('poster_id', 'reference student'), # use controller logic to check if the student who posted is a admin of the student org"
p87
sI10
S'                )'
p88
sI11
S''
ssg69
S'()'
p89
sg71
S'<module>'
p90
sasS'pyver'
p91
S'Python 2.7.6: C:\\Users\\Desmond\\Documents\\web2py\\web2py.exe (prefix: )'
p92
sS'session'
p93
g57
(S's\x1a\x00\x00\x00<div><table></table></div>'
tRp94
sS'etype'
p95
S"<type 'exceptions.NameError'>"
p96
sS'date'
p97
S'Tue Oct 28 18:02:27 2014'
p98
sS'response'
p99
g57
(S's\x073\x00\x00<div><table><tr><td style="font-weight:bold;vertical-align:top;">body</td><td style="vertical-align:top;">:</td><td><div>&lt;cStringIO.StringO object at 0x07B8F620&gt;</div></td></tr><tr><td style="font-weight:bold;vertical-align:top;">cookies</td><td style="vertical-align:top;">:</td><td><div><table><tr><td style="font-weight:bold;vertical-align:top;">session_id_eventcentral</td><td style="vertical-align:top;">:</td><td><div>127.0.0.1-3406bf44-701c-4594-a71c-842d8af98d38<table><tr><td style="font-weight:bold;vertical-align:top;">comment</td><td style="vertical-align:top;">:</td><td><div></div></td></tr><tr><td style="font-weight:bold;vertical-align:top;">domain</td><td style="vertical-align:top;">:</td><td><div></div></td></tr><tr><td style="font-weight:bold;vertical-align:top;">expires</td><td style="vertical-align:top;">:</td><td><div></div></td></tr><tr><td style="font-weight:bold;vertical-align:top;">httponly</td><td style="vertical-align:top;">:</td><td><div></div></td></tr><tr><td style="font-weight:bold;vertical-align:top;">max-age</td><td style="vertical-align:top;">:</td><td><div></div></td></tr><tr><td style="font-weight:bold;vertical-align:top;">path</td><td style="vertical-align:top;">:</td><td><div>/</div></td></tr><tr><td style="font-weight:bold;vertical-align:top;">secure</td><td style="vertical-align:top;">:</td><td><div></div></td></tr><tr><td style="font-weight:bold;vertical-align:top;">version</td><td style="vertical-align:top;">:</td><td><div></div></td></tr></table></div></td></tr></table></div></td></tr><tr><td style="font-weight:bold;vertical-align:top;">delimiters</td><td style="vertical-align:top;">:</td><td><div><table><tr><td><div>{{</div></td></tr><tr><td><div>}}</div></td></tr></table></div></td></tr><tr><td style="font-weight:bold;vertical-align:top;">files</td><td style="vertical-align:top;">:</td><td><div><table></table></div></td></tr><tr><td style="font-weight:bold;vertical-align:top;">flash</td><td style="vertical-align:top;">:</td><td><div></div></td></tr><tr><td style="font-weight:bold;vertical-align:top;">form_label_separator</td><td style="vertical-align:top;">:</td><td><div>: </div></td></tr><tr><td style="font-weight:bold;vertical-align:top;">formstyle</td><td style="vertical-align:top;">:</td><td><div>table3cols</div></td></tr><tr><td style="font-weight:bold;vertical-align:top;">generic_patterns</td><td style="vertical-align:top;">:</td><td><div><table><tr><td><div>*</div></td></tr></table></div></td></tr><tr><td style="font-weight:bold;vertical-align:top;">google_analytics_id</td><td style="vertical-align:top;">:</td><td><div>None</div></td></tr><tr><td style="font-weight:bold;vertical-align:top;">headers</td><td style="vertical-align:top;">:</td><td><div><table><tr><td style="font-weight:bold;vertical-align:top;">X-Powered-By</td><td style="vertical-align:top;">:</td><td><div>web2py</div></td></tr></table></div></td></tr><tr><td style="font-weight:bold;vertical-align:top;">logo</td><td style="vertical-align:top;">:</td><td><div><a class="brand" href="http://www.web2py.com/"><b>web<span>2</span>py</b>&trade;&nbsp;</a></div></td></tr><tr><td style="font-weight:bold;vertical-align:top;">menu</td><td style="vertical-align:top;">:</td><td><div><table><tr><td><div><table><tr><td><div>Home</div></td></tr><tr><td><div>False</div></td></tr><tr><td><div>/EventCentral/default/index</div></td></tr><tr><td><div><table></table></div></td></tr></table></div></td></tr><tr><td><div><table><tr><td><div><span class="highlighted">web2py</span></div></td></tr><tr><td><div>False</div></td></tr><tr><td><div>http://web2py.com</div></td></tr><tr><td><div><table><tr><td><div><table><tr><td><div>My Sites</div></td></tr><tr><td><div>False</div></td></tr><tr><td><div>/admin/default/site</div></td></tr></table></div></td></tr><tr><td><div><table><tr><td><div>This App</div></td></tr><tr><td><div>False</div></td></tr><tr><td><div>/admin/default/design/EventCentral</div></td></tr><tr><td><div>[(&lt;lazyT &#x27;Controller&#x27;&gt;, False, &#x27;/admin/default/edit/EventCentral/controllers/default.py&#x27;), (&lt;lazyT &#x27;View&#x27;&gt;, False, &#x27;/admin/default/edit/EventCentral/views/default/index.html&#x27;), (&lt;lazyT &#x27;Layout&#x27;&gt;, False, &#x27;/admin/default/edit/EventCentral/views/layout.html&#x27;), (&lt;lazyT &#x27;Stylesheet&#x27;&gt;, False, &#x27;/admin/default/edit/EventCentral/static/css/web2py.css&#x27;), (&lt;lazyT &#x27;DB Model&#x27;&gt;, False, &#x27;/admin/default/edit/EventCentral/models/db.py&#x27;), (&lt;lazyT &#x27;Menu Model&#x27;&gt;, False, &#x27;/admin/default/edit/EventCentral/models/menu.py&#x27;), (&lt;lazyT &#x27;Database&#x27;&gt;, False, &#x27;/EventCentral/appadmin/index&#x27;), (&lt;lazyT &#x27;Errors&#x27;&gt;, False, &#x27;/admin/default/errors/EventCentral&#x27;), (&lt;lazyT &#x27;About&#x27;&gt;, False, &#x27;/admin/default/about/EventCentral&#x27;)]</div></td></tr></table></div></td></tr><tr><td><div><table><tr><td><div>web2py.com</div></td></tr><tr><td><div>False</div></td></tr><tr><td><div>http://www.web2py.com</div></td></tr><tr><td><div>[(&lt;lazyT &#x27;Download&#x27;&gt;, False, &#x27;http://www.web2py.com/examples/default/download&#x27;), (&lt;lazyT &#x27;Support&#x27;&gt;, False, &#x27;http://www.web2py.com/examples/default/support&#x27;), (&lt;lazyT &#x27;Demo&#x27;&gt;, False, &#x27;http://web2py.com/demo_admin&#x27;), (&lt;lazyT &#x27;Quick Examples&#x27;&gt;, False, &#x27;http://web2py.com/examples/default/examples&#x27;), (&lt;lazyT &#x27;FAQ&#x27;&gt;, False, &#x27;http://web2py.com/AlterEgo&#x27;), (&lt;lazyT &#x27;Videos&#x27;&gt;, False, &#x27;http://www.web2py.com/examples/default/videos/&#x27;), (&lt;lazyT &#x27;Free Applications&#x27;&gt;, False, &#x27;http://web2py.com/appliances&#x27;), (&lt;lazyT &#x27;Plugins&#x27;&gt;, False, &#x27;http://web2py.com/plugins&#x27;), (&lt;lazyT &#x27;Layouts&#x27;&gt;, False, &#x27;http://web2py.com/layouts&#x27;), (&lt;lazyT &#x27;Recipes&#x27;&gt;, False, &#x27;http://web2pyslices.com/&#x27;), (&lt;lazyT &#x27;Semantic&#x27;&gt;, False, &#x27;http://web2py.com/semantic&#x27;)]</div></td></tr></table></div></td></tr><tr><td><div><table><tr><td><div>Documentation</div></td></tr><tr><td><div>False</div></td></tr><tr><td><div>http://www.web2py.com/book</div></td></tr><tr><td><div>[(&lt;lazyT &#x27;Preface&#x27;&gt;, False, &#x27;http://www.web2py.com/book/default/chapter/00&#x27;), (&lt;lazyT &#x27;Introduction&#x27;&gt;, False, &#x27;http://www.web2py.com/book/default/chapter/01&#x27;), (&lt;lazyT &#x27;Python&#x27;&gt;, False, &#x27;http://www.web2py.com/book/default/chapter/02&#x27;), (&lt;lazyT &#x27;Overview&#x27;&gt;, False, &#x27;http://www.web2py.com/book/default/chapter/03&#x27;), (&lt;lazyT &#x27;The Core&#x27;&gt;, False, &#x27;http://www.web2py.com/book/default/chapter/04&#x27;), (&lt;lazyT &#x27;The Views&#x27;&gt;, False, &#x27;http://www.web2py.com/book/default/chapter/05&#x27;), (&lt;lazyT &#x27;Database&#x27;&gt;, False, &#x27;http://www.web2py.com/book/default/chapter/06&#x27;), (&lt;lazyT &#x27;Forms and Validators&#x27;&gt;, False, &#x27;http://www.web2py.com/book/default/chapter/07&#x27;), (&lt;lazyT &#x27;Email and SMS&#x27;&gt;, False, &#x27;http://www.web2py.com/book/default/chapter/08&#x27;), (&lt;lazyT &#x27;Access Control&#x27;&gt;, False, &#x27;http://www.web2py.com/book/default/chapter/09&#x27;), (&lt;lazyT &#x27;Services&#x27;&gt;, False, &#x27;http://www.web2py.com/book/default/chapter/10&#x27;), (&lt;lazyT &#x27;Ajax Recipes&#x27;&gt;, False, &#x27;http://www.web2py.com/book/default/chapter/11&#x27;), (&lt;lazyT &#x27;Components and Plugins&#x27;&gt;, False, &#x27;http://www.web2py.com/book/default/chapter/12&#x27;), (&lt;lazyT &#x27;Deployment Recipes&#x27;&gt;, False, &#x27;http://www.web2py.com/book/default/chapter/13&#x27;), (&lt;lazyT &#x27;Other Recipes&#x27;&gt;, False, &#x27;http://www.web2py.com/book/default/chapter/14&#x27;), (&lt;lazyT &#x27;Buy this book&#x27;&gt;, False, &#x27;http://stores.lulu.com/web2py&#x27;)]</div></td></tr></table></div></td></tr><tr><td><div><table><tr><td><div>Community</div></td></tr><tr><td><div>False</div></td></tr><tr><td><div>None</div></td></tr><tr><td><div>[(&lt;lazyT &#x27;Groups&#x27;&gt;, False, &#x27;http://www.web2py.com/examples/default/usergroups&#x27;), (&lt;lazyT &#x27;Twitter&#x27;&gt;, False, &#x27;http://twitter.com/web2py&#x27;), (&lt;lazyT &#x27;Live Chat&#x27;&gt;, False, &#x27;http://webchat.freenode.net/?channels=web2py&#x27;)]</div></td></tr></table></div></td></tr><tr><td><div><table><tr><td><div>Plugins</div></td></tr><tr><td><div>False</div></td></tr><tr><td><div>None</div></td></tr><tr><td><div>[(&#x27;plugin_wiki&#x27;, False, &#x27;http://web2py.com/examples/default/download&#x27;), (&lt;lazyT &#x27;Other Plugins&#x27;&gt;, False, &#x27;http://web2py.com/plugins&#x27;), (&lt;lazyT &#x27;Layout Plugins&#x27;&gt;, False, &#x27;http://web2py.com/layouts&#x27;)]</div></td></tr></table></div></td></tr></table></div></td></tr></table></div></td></tr></table></div></td></tr><tr><td style="font-weight:bold;vertical-align:top;">meta</td><td style="vertical-align:top;">:</td><td><div><table><tr><td style="font-weight:bold;vertical-align:top;">author</td><td style="vertical-align:top;">:</td><td><div>Your Name &lt;you@example.com&gt;</div></td></tr><tr><td style="font-weight:bold;vertical-align:top;">generator</td><td style="vertical-align:top;">:</td><td><div>Web2py Web Framework</div></td></tr><tr><td style="font-weight:bold;vertical-align:top;">keywords</td><td style="vertical-align:top;">:</td><td><div>web2py, python, framework</div></td></tr></table></div></td></tr><tr><td style="font-weight:bold;vertical-align:top;">models_to_run</td><td style="vertical-align:top;">:</td><td><div><table><tr><td><div>^\\w+\\.py$</div></td></tr><tr><td><div>^default/\\w+\\.py$</div></td></tr><tr><td><div>^default/index/\\w+\\.py$</div></td></tr></table></div></td></tr><tr><td style="font-weight:bold;vertical-align:top;">postprocessing</td><td style="vertical-align:top;">:</td><td><div><table></table></div></td></tr><tr><td style="font-weight:bold;vertical-align:top;">session_client</td><td style="vertical-align:top;">:</td><td><div>127.0.0.1</div></td></tr><tr><td style="font-weight:bold;vertical-align:top;">session_cookie_compression_level</td><td style="vertical-align:top;">:</td><td><div>None</div></td></tr><tr><td style="font-weight:bold;vertical-align:top;">session_cookie_expires</td><td style="vertical-align:top;">:</td><td><div>None</div></td></tr><tr><td style="font-weight:bold;vertical-align:top;">session_cookie_key</td><td style="vertical-align:top;">:</td><td><div>None</div></td></tr><tr><td style="font-weight:bold;vertical-align:top;">session_data_name</td><td style="vertical-align:top;">:</td><td><div>session_data_eventcentral</div></td></tr><tr><td style="font-weight:bold;vertical-align:top;">session_file</td><td style="vertical-align:top;">:</td><td><div>&lt;open file &#x27;C:\\\\Users\\\\Desmond\\\\Documents\\\\web2py\\\\applications\\\\EventCentral\\\\sessions\\\\161\\\\0b5\\\\127.0.0.1-3406bf44-701c-4594-a71c-842d8af98d38&#x27;, mode &#x27;rb+&#x27; at 0x06C3EDE0&gt;</div></td></tr><tr><td style="font-weight:bold;vertical-align:top;">session_filename</td><td style="vertical-align:top;">:</td><td><div>C:\\Users\\Desmond\\Documents\\web2py\\applications\\EventCentral\\sessions\\127.0.0.1-3406bf44-701c-4594-a71c-842d8af98d38</div></td></tr><tr><td style="font-weight:bold;vertical-align:top;">session_hash</td><td style="vertical-align:top;">:</td><td><div>7959a669fa064e0d5a9a189544cf6df5</div></td></tr><tr><td style="font-weight:bold;vertical-align:top;">session_id</td><td style="vertical-align:top;">:</td><td><div>127.0.0.1-3406bf44-701c-4594-a71c-842d8af98d38</div></td></tr><tr><td style="font-weight:bold;vertical-align:top;">session_id_name</td><td style="vertical-align:top;">:</td><td><div>session_id_eventcentral</div></td></tr><tr><td style="font-weight:bold;vertical-align:top;">session_locked</td><td style="vertical-align:top;">:</td><td><div>True</div></td></tr><tr><td style="font-weight:bold;vertical-align:top;">session_masterapp</td><td style="vertical-align:top;">:</td><td><div>EventCentral</div></td></tr><tr><td style="font-weight:bold;vertical-align:top;">session_new</td><td style="vertical-align:top;">:</td><td><div>False</div></td></tr><tr><td style="font-weight:bold;vertical-align:top;">session_storage_type</td><td style="vertical-align:top;">:</td><td><div>file</div></td></tr><tr><td style="font-weight:bold;vertical-align:top;">status</td><td style="vertical-align:top;">:</td><td><div>200</div></td></tr><tr><td style="font-weight:bold;vertical-align:top;">subtitle</td><td style="vertical-align:top;">:</td><td><div></div></td></tr><tr><td style="font-weight:bold;vertical-align:top;">title</td><td style="vertical-align:top;">:</td><td><div>Eventcentral</div></td></tr><tr><td style="font-weight:bold;vertical-align:top;">view</td><td style="vertical-align:top;">:</td><td><div>default/index.html</div></td></tr></table></div>'
tRp100
sS'locals'
p101
(dp102
S'Service'
p103
S"<class 'gluon.tools.Service'>"
p104
sS'OBJECT'
p105
S"<class 'gluon.html.OBJECT'>"
p106
sS'datetime'
p107
S"<type 'datetime.datetime'>"
p108
sg93
S"<Storage {'_user_agent': <Storage {'os': <Storag...version': '37.0.2062.124', 'name': 'Chrome'}>}>}>"
p109
sS'LINK'
p110
S"<class 'gluon.html.LINK'>"
p111
sS'BR'
p112
S"<class 'gluon.html.BR'>"
p113
sS'local_import'
p114
S'<function <lambda>>'
p115
sS'OPTGROUP'
p116
S"<class 'gluon.html.OPTGROUP'>"
p117
sS'LI'
p118
S"<class 'gluon.html.LI'>"
p119
sS'PRE'
p120
S"<class 'gluon.html.PRE'>"
p121
sS'IS_INT_IN_RANGE'
p122
S"<class 'gluon.validators.IS_INT_IN_RANGE'>"
p123
sS'IS_LOWER'
p124
S"<class 'gluon.validators.IS_LOWER'>"
p125
sS'IS_STRONG'
p126
S"<class 'gluon.validators.IS_STRONG'>"
p127
sS'cache'
p128
S'<gluon.cache.Cache object>'
p129
sS'IS_IN_DB'
p130
S"<class 'gluon.validators.IS_IN_DB'>"
p131
sS'TAG'
p132
S'<gluon.html.__TAG__ object>'
p133
sS'SQLField'
p134
S"<class 'gluon.dal.Field'>"
p135
sS'mail'
p136
S'<gluon.tools.Mail object>'
p137
sS'BODY'
p138
S"<class 'gluon.html.BODY'>"
p139
sS'IS_DATE_IN_RANGE'
p140
S"<class 'gluon.validators.IS_DATE_IN_RANGE'>"
p141
sS'TH'
p142
S"<class 'gluon.html.TH'>"
p143
sS'URL'
p144
S'<function URL>'
p145
sS'__file__'
p146
S"r'C:\\Users\\Desmond\\Documents\\web2py\\applications\\EventCentral\\models\\d_comments.py'"
p147
sS'db'
p148
S'<DAL uri="sqlite://storage.sqlite">'
p149
sS'auth'
p150
S'<gluon.tools.Auth object>'
p151
sS'P'
S"<class 'gluon.html.P'>"
p152
sS'TFOOT'
p153
S"<class 'gluon.html.TFOOT'>"
p154
sS'XHTML'
p155
S"<class 'gluon.html.XHTML'>"
p156
sS'SQLDB'
p157
S"<class 'gluon.dal.DAL'>"
p158
sS'ON'
p159
S'True'
p160
sS'OL'
p161
S"<class 'gluon.html.OL'>"
p162
sS'TEXTAREA'
p163
S"<class 'gluon.html.TEXTAREA'>"
p164
sS'MENU'
p165
S"<class 'gluon.html.MENU'>"
p166
sS'LOAD'
p167
S'<function LOAD>'
p168
sS'CODE'
p169
S"<class 'gluon.html.CODE'>"
p170
sS'HTTP'
p171
S"<class 'gluon.http.HTTP'>"
p172
sS'HR'
p173
S"<class 'gluon.html.HR'>"
p174
sS'IS_DATETIME'
p175
S"<class 'gluon.validators.IS_DATETIME'>"
p176
sS'HEAD'
p177
S"<class 'gluon.html.HEAD'>"
p178
sS'LABEL'
p179
S"<class 'gluon.html.LABEL'>"
p180
sS'CLEANUP'
p181
S"<class 'gluon.validators.CLEANUP'>"
p182
sS'plugins'
p183
S'<gluon.tools.PluginManager object>'
p184
sS'SELECT'
p185
S"<class 'gluon.html.SELECT'>"
p186
sS'use_janrain'
p187
S'<function use_janrain>'
p188
sS'CENTER'
p189
S"<class 'gluon.html.CENTER'>"
p190
sS'Auth'
p191
S"<class 'gluon.tools.Auth'>"
p192
sS'DEVELOPMENT_MENU'
p193
g160
sS'__builtins__'
p194
S"{'ArithmeticError': <type 'exceptions.ArithmeticError'>, 'AssertionError': <type 'exceptions.AssertionError'>, 'AttributeError': <type 'exceptions.AttributeError'>, 'BaseException': <type 'exceptions.BaseException'>, 'BufferError': <type 'exceptions.BufferError'>, 'BytesWarning': <type 'exceptions.BytesWarning'>, 'DeprecationWarning': <type 'exceptions.DeprecationWarning'>, 'EOFError': <type 'exceptions.EOFError'>, 'Ellipsis': Ellipsis, 'EnvironmentError': <type 'exceptions.EnvironmentError'>, ...}"
p195
sS'HTML'
p196
S"<class 'gluon.html.HTML'>"
p197
sS'SQLFORM'
p198
S"<class 'gluon.sqlhtml.SQLFORM'>"
p199
sS'EM'
p200
S"<class 'gluon.html.EM'>"
p201
sS'redirect'
p202
S'<function redirect>'
p203
sS'FIELDSET'
p204
S"<class 'gluon.html.FIELDSET'>"
p205
sS'IS_EQUAL_TO'
p206
S"<class 'gluon.validators.IS_EQUAL_TO'>"
p207
sS'embed64'
p208
S'<function embed64>'
p209
sS'IS_LIST_OF'
p210
S"<class 'gluon.validators.IS_LIST_OF'>"
p211
sS'__name__'
p212
S"'__restricted__'"
p213
sS'EMBED'
p214
S"<class 'gluon.html.EMBED'>"
p215
sS'_'
S'<function _>'
p216
sS'FORM'
p217
S"<class 'gluon.html.FORM'>"
p218
sS'H2'
p219
S"<class 'gluon.html.H2'>"
p220
sS'H3'
p221
S"<class 'gluon.html.H3'>"
p222
sS'BUTTON'
p223
S"<class 'gluon.html.BUTTON'>"
p224
sS'H1'
p225
S"<class 'gluon.html.H1'>"
p226
sS'H6'
p227
S"<class 'gluon.html.H6'>"
p228
sS'H4'
p229
S"<class 'gluon.html.H4'>"
p230
sS'H5'
p231
S"<class 'gluon.html.H5'>"
p232
sS'UL'
p233
S"<class 'gluon.html.UL'>"
p234
sS'IS_UPPER'
p235
S"<class 'gluon.validators.IS_UPPER'>"
p236
sS'xmlescape'
p237
S'<function xmlescape>'
p238
sS'IS_TIME'
p239
S"<class 'gluon.validators.IS_TIME'>"
p240
sS'OPTION'
p241
S"<class 'gluon.html.OPTION'>"
p242
sS'TITLE'
p243
S"<class 'gluon.html.TITLE'>"
p244
sS'CRYPT'
p245
S"<class 'gluon.validators.CRYPT'>"
p246
sS'IS_EMPTY_OR'
p247
S"<class 'gluon.validators.IS_EMPTY_OR'>"
p248
sS'MARKMIN'
p249
S"<class 'gluon.html.MARKMIN'>"
p250
sS'INPUT'
p251
S"<class 'gluon.html.INPUT'>"
p252
sS'STRONG'
p253
S"<class 'gluon.html.STRONG'>"
p254
sS'COL'
p255
S"<class 'gluon.html.COL'>"
p256
sS'service'
p257
S'<gluon.tools.Service object>'
p258
sS'SCRIPT'
p259
S"<class 'gluon.html.SCRIPT'>"
p260
sS'TABLE'
p261
S"<class 'gluon.html.TABLE'>"
p262
sS'IS_IPV4'
p263
S"<class 'gluon.validators.IS_IPV4'>"
p264
sS'IS_LENGTH'
p265
S"<class 'gluon.validators.IS_LENGTH'>"
p266
sS'IS_IPV6'
p267
S"<class 'gluon.validators.IS_IPV6'>"
p268
sS'XML'
p269
S"<class 'gluon.html.XML'>"
p270
sS'B'
S"<class 'gluon.html.B'>"
p271
sS'IMG'
p272
S"<class 'gluon.html.IMG'>"
p273
sS'SQLTABLE'
p274
S"<class 'gluon.sqlhtml.SQLTABLE'>"
p275
sS'IS_MATCH'
p276
S"<class 'gluon.validators.IS_MATCH'>"
p277
sS'IS_ALPHANUMERIC'
p278
S"<class 'gluon.validators.IS_ALPHANUMERIC'>"
p279
sS'SPAN'
p280
S"<class 'gluon.html.SPAN'>"
p281
sS'IS_JSON'
p282
S"<class 'gluon.validators.IS_JSON'>"
p283
sS'IS_IPADDRESS'
p284
S"<class 'gluon.validators.IS_IPADDRESS'>"
p285
sS'IS_SLUG'
p286
S"<class 'gluon.validators.IS_SLUG'>"
p287
sS'BEAUTIFY'
p288
S"<class 'gluon.html.BEAUTIFY'>"
p289
sS'META'
p290
S"<class 'gluon.html.META'>"
p291
sS'IS_DATE'
p292
S"<class 'gluon.validators.IS_DATE'>"
p293
sS'IS_EMAIL'
p294
S"<class 'gluon.validators.IS_EMAIL'>"
p295
sS'IS_NOT_EMPTY'
p296
S"<class 'gluon.validators.IS_NOT_EMPTY'>"
p297
sg56
S"<Storage {'_vars': None, 'function': 'index', 'c...ocuments\\\\web2py\\\\applications\\\\EventCentral\\\\'}>"
p298
sS'TBODY'
p299
S"<class 'gluon.html.TBODY'>"
p300
sS'CAT'
p301
S"<class 'gluon.html.CAT'>"
p302
sS'Field'
p303
S"<class 'gluon.dal.Field'>"
p304
sS'IS_LIST_OF_EMAILS'
p305
S"<class 'gluon.validators.IS_LIST_OF_EMAILS'>"
p306
sS'DIV'
p307
S"<class 'gluon.html.DIV'>"
p308
sS'LEGEND'
p309
S"<class 'gluon.html.LEGEND'>"
p310
sS'COLGROUP'
p311
S"<class 'gluon.html.COLGROUP'>"
p312
sS'DAL'
p313
S"<class 'gluon.dal.DAL'>"
p314
sS'ASSIGNJS'
p315
S'<function ASSIGNJS>'
p316
sS'TR'
p317
S"<class 'gluon.html.TR'>"
p318
sS'__package__'
p319
S'None'
p320
sS'IFRAME'
p321
S"<class 'gluon.html.IFRAME'>"
p322
sS'TD'
p323
S"<class 'gluon.html.TD'>"
p324
sS'PluginManager'
p325
S"<class 'gluon.tools.PluginManager'>"
p326
sS'IS_URL'
p327
S"<class 'gluon.validators.IS_URL'>"
p328
sS'A'
S"<class 'gluon.html.A'>"
p329
sS'STYLE'
p330
S"<class 'gluon.html.STYLE'>"
p331
sS'IS_DATETIME_IN_RANGE'
p332
S"<class 'gluon.validators.IS_DATETIME_IN_RANGE'>"
p333
sS'IS_IMAGE'
p334
S"<class 'gluon.validators.IS_IMAGE'>"
p335
sS'I'
S"<class 'gluon.html.I'>"
p336
sS'IS_NOT_IN_DB'
p337
S"<class 'gluon.validators.IS_NOT_IN_DB'>"
p338
sg99
S"<Storage {'body': <cStringIO.StringO object at 0...a> at 0x079613B0>, 'view': 'default/index.html'}>"
p339
sS'THEAD'
p340
S"<class 'gluon.html.THEAD'>"
p341
sS'ANY_OF'
p342
S"<class 'gluon.validators.ANY_OF'>"
p343
sS'IS_NULL_OR'
p344
S"<class 'gluon.validators.IS_EMPTY_OR'>"
p345
sS'IS_FLOAT_IN_RANGE'
p346
S"<class 'gluon.validators.IS_FLOAT_IN_RANGE'>"
p347
sS'IS_EXPR'
p348
S"<class 'gluon.validators.IS_EXPR'>"
p349
sS'IS_IN_SET'
p350
S"<class 'gluon.validators.IS_IN_SET'>"
p351
sS'IS_UPLOAD_FILENAME'
p352
S"<class 'gluon.validators.IS_UPLOAD_FILENAME'>"
p353
sS'IS_DECIMAL_IN_RANGE'
p354
S"<class 'gluon.validators.IS_DECIMAL_IN_RANGE'>"
p355
sS'TT'
p356
S"<class 'gluon.html.TT'>"
p357
sS'T'
S'<gluon.languages.translator object>'
p358
sssS'traceback'
p359
S'Traceback (most recent call last):\n  File "gluon/restricted.py", line 224, in restricted\n  File "C:\\Users\\Desmond\\Documents\\web2py\\applications\\EventCentral\\models\\d_comments.py", line 6, in <module>\n    Field(\'comment_type\', integer), #0=?(normal comment), 1=?(question), 2=?(awnser)\nNameError: name \'integer\' is not defined\n'
p360
s.